target datalayout = "e-m:e-p270:32:32-p271:32:32-p272:64:64-i64:64-i128:128-f80:128-n8:16:32:64-S128"
target triple = "x86_64-pc-linux-gnu"

@.str.41 = private unnamed_addr constant [13 x i8] c"#<%li\0B %li\0B>\00", align 1

; Function Attrs: nounwind sspstrong uwtable
define internal i64 @ossl_x509name_to_utf8(i64 noundef %0) #0 {
  %2 = alloca i64, align 8
  %3 = alloca i64, align 8
  store i64 %0, ptr %2, align 8, !tbaa !11
  call void @llvm.lifetime.start.p0(i64 8, ptr %3) #18
  %4 = load i64, ptr %2, align 8, !tbaa !11
  %5 = call i64 @x509name_print(i64 noundef %4, i64 noundef 17892115)
  store i64 %5, ptr %3, align 8, !tbaa !11
  %6 = load i64, ptr %3, align 8, !tbaa !11
  %7 = call i32 @rb_utf8_encindex() #20
  %8 = call i64 @rb_enc_associate_index(i64 noundef %6, i32 noundef %7)
  %9 = load i64, ptr %3, align 8, !tbaa !11
  call void @llvm.lifetime.end.p0(i64 8, ptr %3) #18
  ret i64 %9
}

; Function Attrs: nounwind sspstrong uwtable
define internal i64 @ossl_x509name_inspect(i64 noundef %0) #0 {
  %2 = alloca i64, align 8
  store i64 %0, ptr %2, align 8, !tbaa !11
  %3 = call nonnull ptr @rb_utf8_encoding()
  %4 = load i64, ptr %2, align 8, !tbaa !11
  %5 = call i64 @rb_obj_class(i64 noundef %4)
  %6 = load i64, ptr %2, align 8, !tbaa !11
  %7 = call i64 @ossl_x509name_to_utf8(i64 noundef %6)
  %8 = call i64 (ptr, ptr, ...) @rb_enc_sprintf(ptr noundef %3, ptr noundef @.str.41, i64 noundef %5, i64 noundef %7)
  ret i64 %8
}