; Function Attrs: nounwind sspstrong uwtable
define internal i64 @ossl_x509name_inspect(i64 noundef %0) #0 {
  %2 = tail call nonnull ptr @rb_utf8_encoding() #8
  %3 = tail call i64 @rb_obj_class(i64 noundef %0) #8
  %4 = tail call fastcc i64 @x509name_print(i64 noundef %0, i64 noundef 17892115)
  %5 = tail call i32 @rb_utf8_encindex() #12
  %6 = tail call i64 @rb_enc_associate_index(i64 noundef %4, i32 noundef %5) #8
  %7 = tail call i64 (ptr, ptr, ...) @rb_enc_sprintf(ptr noundef nonnull %2, ptr noundef nonnull @.str.41, i64 noundef %3, i64 noundef %4) #8
  ret i64 %7
}